target datalayout = "e-m:e-p270:32:32-p271:32:32-p272:64:64-i64:64-i128:128-f80:128-n8:16:32:64-S128"
target triple = "x86_64-pc-linux-gnu"

%struct.StatusPrinter = type { %struct.Status, ptr, i32, i32, i32, i32, i64, i64, double, i32, i64, i32, i64, i32, %struct.LinePrinter, ptr, ptr, %"struct.StatusPrinter::SlidingRateInfo" }
%struct.Status = type { ptr }
%struct.LinePrinter = type { i8, i8, i8, i8, %"class.std::__cxx11::basic_string", i32, %"class.std::__cxx11::basic_string" }
%"class.std::__cxx11::basic_string" = type { %"struct.std::__cxx11::basic_string<char>::_Alloc_hider", i64, %union.anon }
%"struct.std::__cxx11::basic_string<char>::_Alloc_hider" = type { ptr }
%union.anon = type { i64, [8 x i8] }
%"struct.StatusPrinter::SlidingRateInfo" = type <{ double, i64, %"class.std::queue", i32, [4 x i8] }>
%"class.std::queue" = type { %"class.std::deque" }
%"class.std::deque" = type { %"class.std::_Deque_base" }
%"class.std::_Deque_base" = type { %"struct.std::_Deque_base<double, std::allocator<double>>::_Deque_impl" }
%"struct.std::_Deque_base<double, std::allocator<double>>::_Deque_impl" = type { %"struct.std::_Deque_base<double, std::allocator<double>>::_Deque_impl_data" }
%"struct.std::_Deque_base<double, std::allocator<double>>::_Deque_impl_data" = type { ptr, i64, %"struct.std::_Deque_iterator", %"struct.std::_Deque_iterator" }
%"struct.std::_Deque_iterator" = type { ptr, ptr, ptr, ptr }
%struct.Edge = type { ptr, ptr, %"class.std::vector", %"class.std::vector", %"class.std::vector", ptr, ptr, i32, i64, i64, i8, i8, i8, i8, i64, i32, i32, i32, i64 }
%"class.std::vector" = type { %"struct.std::_Vector_base" }
%"struct.std::_Vector_base" = type { %"struct.std::_Vector_base<Node *, std::allocator<Node *>>::_Vector_impl" }
%"struct.std::_Vector_base<Node *, std::allocator<Node *>>::_Vector_impl" = type { %"struct.std::_Vector_base<Node *, std::allocator<Node *>>::_Vector_impl_data" }
%"struct.std::_Vector_base<Node *, std::allocator<Node *>>::_Vector_impl_data" = type { ptr, ptr, ptr }

; Function Attrs: mustprogress nounwind uwtable
define dso_local void @_ZN13StatusPrinter15EdgeAddedToPlanEPK4Edge(ptr noundef nonnull align 8 dereferenceable(296) %0, ptr noundef %1) unnamed_addr #5 align 2 {
  %3 = alloca ptr, align 8
  %4 = alloca ptr, align 8
  store ptr %0, ptr %3, align 8, !tbaa !9
  store ptr %1, ptr %4, align 8, !tbaa !69
  %5 = load ptr, ptr %3, align 8
  %6 = getelementptr inbounds nuw %struct.StatusPrinter, ptr %5, i32 0, i32 4
  %7 = load i32, ptr %6, align 8, !tbaa !37
  %8 = add nsw i32 %7, 1
  store i32 %8, ptr %6, align 8, !tbaa !37
  %9 = load ptr, ptr %4, align 8, !tbaa !69
  %10 = getelementptr inbounds nuw %struct.Edge, ptr %9, i32 0, i32 18
  %11 = load i64, ptr %10, align 8, !tbaa !71
  %12 = icmp ne i64 %11, -1
  br i1 %12, label %13, label %32

13:                                               ; preds = %2
  %14 = getelementptr inbounds nuw %struct.StatusPrinter, ptr %5, i32 0, i32 9
  %15 = load i32, ptr %14, align 8, !tbaa !42
  %16 = add nsw i32 %15, 1
  store i32 %16, ptr %14, align 8, !tbaa !42
  %17 = getelementptr inbounds nuw %struct.StatusPrinter, ptr %5, i32 0, i32 11
  %18 = load i32, ptr %17, align 8, !tbaa !44
  %19 = add nsw i32 %18, 1
  store i32 %19, ptr %17, align 8, !tbaa !44
  %20 = load ptr, ptr %4, align 8, !tbaa !69
  %21 = getelementptr inbounds nuw %struct.Edge, ptr %20, i32 0, i32 18
  %22 = load i64, ptr %21, align 8, !tbaa !71
  %23 = getelementptr inbounds nuw %struct.StatusPrinter, ptr %5, i32 0, i32 10
  %24 = load i64, ptr %23, align 8, !tbaa !43
  %25 = add nsw i64 %24, %22
  store i64 %25, ptr %23, align 8, !tbaa !43
  %26 = load ptr, ptr %4, align 8, !tbaa !69
  %27 = getelementptr inbounds nuw %struct.Edge, ptr %26, i32 0, i32 18
  %28 = load i64, ptr %27, align 8, !tbaa !71
  %29 = getelementptr inbounds nuw %struct.StatusPrinter, ptr %5, i32 0, i32 12
  %30 = load i64, ptr %29, align 8, !tbaa !45
  %31 = add nsw i64 %30, %28
  store i64 %31, ptr %29, align 8, !tbaa !45
  br label %36

32:                                               ; preds = %2
  %33 = getelementptr inbounds nuw %struct.StatusPrinter, ptr %5, i32 0, i32 13
  %34 = load i32, ptr %33, align 8, !tbaa !46
  %35 = add nsw i32 %34, 1
  store i32 %35, ptr %33, align 8, !tbaa !46
  br label %36

36:                                               ; preds = %32, %13
  ret void
}